target datalayout = "e-m:e-p270:32:32-p271:32:32-p272:64:64-i64:64-i128:128-f80:128-n8:16:32:64-S128"
target triple = "x86_64-pc-linux-gnu"

%struct._lv_global_t = type { i8, i8, %struct.lv_ll_t, ptr, ptr, %struct.lv_ll_t, i8, i32, i32, ptr, %struct.lv_ll_t, ptr, %struct.lv_ll_t, ptr, ptr, i32, ptr, i8, i32, i32, ptr, i32, %struct.lv_timer_state_t, %struct.lv_anim_state_t, %struct.lv_tick_state_t, %struct._lv_draw_buf_handlers_t, %struct._lv_draw_buf_handlers_t, %struct._lv_draw_buf_handlers_t, %struct.lv_ll_t, ptr, ptr, %struct.lv_draw_global_info_t, [4 x %struct.lv_draw_sw_mask_radius_circle_dsc_t], ptr, ptr, ptr, %struct.lv_tlsf_state_t, %struct.lv_ll_t, ptr, ptr, %struct.lv_style_t, i64, ptr, i32, ptr }
%struct.lv_timer_state_t = type { %struct.lv_ll_t, i8, i8, i8, i8, i32, i8, i32, i32, i32, i32, ptr, ptr }
%struct.lv_anim_state_t = type { i8, i8, ptr, %struct.lv_ll_t }
%struct.lv_tick_state_t = type { i32, i8, ptr, ptr }
%struct._lv_draw_buf_handlers_t = type { ptr, ptr, ptr, ptr, ptr, ptr }
%struct.lv_draw_global_info_t = type { ptr, i32, i32, i32, i32, i8 }
%struct.lv_draw_sw_mask_radius_circle_dsc_t = type { ptr, ptr, ptr, ptr, i32, i32, i32 }
%struct.lv_tlsf_state_t = type { ptr, i64, i64, %struct.lv_ll_t }
%struct.lv_ll_t = type { i32, ptr, ptr }
%struct.lv_style_t = type { ptr, i32, i8 }
%struct._lv_display_t = type { i32, i32, i32, i32, i32, i32, i32, ptr, ptr, ptr, ptr, ptr, i32, i32, i8, i32, i16, i32, [32 x %struct.lv_area_t], [32 x i8], i32, i32, %struct.lv_ll_t, %struct._lv_draw_buf_t, %struct._lv_draw_buf_t, ptr, ptr, ptr, ptr, ptr, ptr, ptr, ptr, ptr, ptr, i32, i8, ptr, ptr, %struct.lv_event_list_t, i8, ptr, ptr, i32, %struct.lv_area_t }
%struct._lv_draw_buf_t = type { %struct.lv_image_header_t, i32, ptr, ptr, ptr }
%struct.lv_image_header_t = type <{ i64, i32 }>
%struct.lv_event_list_t = type { %struct._lv_array_t, i8 }
%struct._lv_array_t = type { ptr, i32, i32, i32, i8 }
%struct.lv_area_t = type { i32, i32, i32, i32 }
%struct._lv_layer_t = type { ptr, %struct.lv_area_t, i32, %struct.lv_area_t, %struct.lv_area_t, ptr, ptr, ptr, i8, ptr }

@lv_global = external global %struct._lv_global_t, align 8

; Function Attrs: nounwind uwtable
define internal void @call_flush_cb(ptr noundef %0, ptr noundef %1, ptr noundef %2) #0 {
  %4 = alloca ptr, align 8
  %5 = alloca ptr, align 8
  %6 = alloca ptr, align 8
  %7 = alloca %struct.lv_area_t, align 4
  store ptr %0, ptr %4, align 8, !tbaa !3
  store ptr %1, ptr %5, align 8, !tbaa !3
  store ptr %2, ptr %6, align 8, !tbaa !3
  call void @llvm.lifetime.start.p0(i64 16, ptr %7) #6
  %8 = getelementptr inbounds nuw %struct.lv_area_t, ptr %7, i32 0, i32 0
  %9 = load ptr, ptr %5, align 8, !tbaa !3
  %10 = getelementptr inbounds nuw %struct.lv_area_t, ptr %9, i32 0, i32 0
  %11 = load i32, ptr %10, align 4, !tbaa !67
  %12 = load ptr, ptr %4, align 8, !tbaa !3
  %13 = getelementptr inbounds nuw %struct._lv_display_t, ptr %12, i32 0, i32 4
  %14 = load i32, ptr %13, align 8, !tbaa !127
  %15 = add nsw i32 %11, %14
  store i32 %15, ptr %8, align 4, !tbaa !67
  %16 = getelementptr inbounds nuw %struct.lv_area_t, ptr %7, i32 0, i32 1
  %17 = load ptr, ptr %5, align 8, !tbaa !3
  %18 = getelementptr inbounds nuw %struct.lv_area_t, ptr %17, i32 0, i32 1
  %19 = load i32, ptr %18, align 4, !tbaa !59
  %20 = load ptr, ptr %4, align 8, !tbaa !3
  %21 = getelementptr inbounds nuw %struct._lv_display_t, ptr %20, i32 0, i32 5
  %22 = load i32, ptr %21, align 4, !tbaa !128
  %23 = add nsw i32 %19, %22
  store i32 %23, ptr %16, align 4, !tbaa !59
  %24 = getelementptr inbounds nuw %struct.lv_area_t, ptr %7, i32 0, i32 2
  %25 = load ptr, ptr %5, align 8, !tbaa !3
  %26 = getelementptr inbounds nuw %struct.lv_area_t, ptr %25, i32 0, i32 2
  %27 = load i32, ptr %26, align 4, !tbaa !68
  %28 = load ptr, ptr %4, align 8, !tbaa !3
  %29 = getelementptr inbounds nuw %struct._lv_display_t, ptr %28, i32 0, i32 4
  %30 = load i32, ptr %29, align 8, !tbaa !127
  %31 = add nsw i32 %27, %30
  store i32 %31, ptr %24, align 4, !tbaa !68
  %32 = getelementptr inbounds nuw %struct.lv_area_t, ptr %7, i32 0, i32 3
  %33 = load ptr, ptr %5, align 8, !tbaa !3
  %34 = getelementptr inbounds nuw %struct.lv_area_t, ptr %33, i32 0, i32 3
  %35 = load i32, ptr %34, align 4, !tbaa !58
  %36 = load ptr, ptr %4, align 8, !tbaa !3
  %37 = getelementptr inbounds nuw %struct._lv_display_t, ptr %36, i32 0, i32 5
  %38 = load i32, ptr %37, align 4, !tbaa !128
  %39 = add nsw i32 %35, %38
  store i32 %39, ptr %32, align 4, !tbaa !58
  %40 = load ptr, ptr %4, align 8, !tbaa !3
  %41 = call i32 @lv_display_send_event(ptr noundef %40, i32 noundef 61, ptr noundef %7)
  %42 = load ptr, ptr %4, align 8, !tbaa !3
  %43 = getelementptr inbounds nuw %struct._lv_display_t, ptr %42, i32 0, i32 10
  %44 = load ptr, ptr %43, align 8, !tbaa !120
  %45 = load ptr, ptr %4, align 8, !tbaa !3
  %46 = load ptr, ptr %6, align 8, !tbaa !3
  call void %44(ptr noundef %45, ptr noundef %7, ptr noundef %46)
  %47 = load ptr, ptr %4, align 8, !tbaa !3
  %48 = call i32 @lv_display_send_event(ptr noundef %47, i32 noundef 62, ptr noundef %7)
  call void @llvm.lifetime.end.p0(i64 16, ptr %7) #6
  ret void
}

; Function Attrs: nounwind uwtable
define internal void @wait_for_flushing(ptr noundef %0) #0 {
  %2 = alloca ptr, align 8
  store ptr %0, ptr %2, align 8, !tbaa !3
  br label %3

3:                                                ; preds = %1
  br label %4

4:                                                ; preds = %3
  %5 = load ptr, ptr %2, align 8, !tbaa !3
  %6 = call i32 @lv_display_send_event(ptr noundef %5, i32 noundef 63, ptr noundef null)
  %7 = load ptr, ptr %2, align 8, !tbaa !3
  %8 = getelementptr inbounds nuw %struct._lv_display_t, ptr %7, i32 0, i32 11
  %9 = load ptr, ptr %8, align 8, !tbaa !102
  %10 = icmp ne ptr %9, null
  br i1 %10, label %11, label %24

11:                                               ; preds = %4
  %12 = load ptr, ptr %2, align 8, !tbaa !3
  %13 = getelementptr inbounds nuw %struct._lv_display_t, ptr %12, i32 0, i32 12
  %14 = load volatile i32, ptr %13, align 8, !tbaa !103
  %15 = icmp ne i32 %14, 0
  br i1 %15, label %16, label %21

16:                                               ; preds = %11
  %17 = load ptr, ptr %2, align 8, !tbaa !3
  %18 = getelementptr inbounds nuw %struct._lv_display_t, ptr %17, i32 0, i32 11
  %19 = load ptr, ptr %18, align 8, !tbaa !102
  %20 = load ptr, ptr %2, align 8, !tbaa !3
  call void %19(ptr noundef %20)
  br label %21

21:                                               ; preds = %16, %11
  %22 = load ptr, ptr %2, align 8, !tbaa !3
  %23 = getelementptr inbounds nuw %struct._lv_display_t, ptr %22, i32 0, i32 12
  store volatile i32 0, ptr %23, align 8, !tbaa !103
  br label %32

24:                                               ; preds = %4
  br label %25

25:                                               ; preds = %30, %24
  %26 = load ptr, ptr %2, align 8, !tbaa !3
  %27 = getelementptr inbounds nuw %struct._lv_display_t, ptr %26, i32 0, i32 12
  %28 = load volatile i32, ptr %27, align 8, !tbaa !103
  %29 = icmp ne i32 %28, 0
  br i1 %29, label %30, label %31

30:                                               ; preds = %25
  br label %25, !llvm.loop !104

31:                                               ; preds = %25
  br label %32

32:                                               ; preds = %31, %21
  %33 = load ptr, ptr %2, align 8, !tbaa !3
  %34 = getelementptr inbounds nuw %struct._lv_display_t, ptr %33, i32 0, i32 13
  store volatile i32 0, ptr %34, align 4, !tbaa !105
  %35 = load ptr, ptr %2, align 8, !tbaa !3
  %36 = call i32 @lv_display_send_event(ptr noundef %35, i32 noundef 64, ptr noundef null)
  br label %37

37:                                               ; preds = %32
  br label %38

38:                                               ; preds = %37
  ret void
}

; Function Attrs: nounwind uwtable
define internal void @draw_buf_flush(ptr noundef %0) #0 {
  %2 = alloca ptr, align 8
  %3 = alloca ptr, align 8
  %4 = alloca i8, align 1
  store ptr %0, ptr %2, align 8, !tbaa !3
  call void @llvm.lifetime.start.p0(i64 8, ptr %3) #6
  %5 = load ptr, ptr %2, align 8, !tbaa !3
  %6 = getelementptr inbounds nuw %struct._lv_display_t, ptr %5, i32 0, i32 25
  %7 = load ptr, ptr %6, align 8, !tbaa !107
  store ptr %7, ptr %3, align 8, !tbaa !3
  br label %8

8:                                                ; preds = %13, %1
  %9 = load ptr, ptr %3, align 8, !tbaa !3
  %10 = getelementptr inbounds nuw %struct._lv_layer_t, ptr %9, i32 0, i32 5
  %11 = load ptr, ptr %10, align 8, !tbaa !113
  %12 = icmp ne ptr %11, null
  br i1 %12, label %13, label %14

13:                                               ; preds = %8
  call void @lv_draw_dispatch_wait_for_request()
  call void @lv_draw_dispatch()
  br label %8, !llvm.loop !119

14:                                               ; preds = %8
  %15 = load ptr, ptr %2, align 8, !tbaa !3
  %16 = call zeroext i1 @lv_display_is_double_buffered(ptr noundef %15)
  br i1 %16, label %17, label %19

17:                                               ; preds = %14
  %18 = load ptr, ptr getelementptr inbounds nuw (%struct._lv_global_t, ptr @lv_global, i32 0, i32 3), align 8, !tbaa !21
  call void @wait_for_flushing(ptr noundef %18)
  br label %19

19:                                               ; preds = %17, %14
  %20 = load ptr, ptr %2, align 8, !tbaa !3
  %21 = getelementptr inbounds nuw %struct._lv_display_t, ptr %20, i32 0, i32 12
  store volatile i32 1, ptr %21, align 8, !tbaa !103
  %22 = load ptr, ptr %2, align 8, !tbaa !3
  %23 = getelementptr inbounds nuw %struct._lv_display_t, ptr %22, i32 0, i32 14
  %24 = load volatile i8, ptr %23, align 8
  %25 = and i8 %24, 1
  %26 = zext i8 %25 to i32
  %27 = icmp ne i32 %26, 0
  br i1 %27, label %28, label %39

28:                                               ; preds = %19
  %29 = load ptr, ptr %2, align 8, !tbaa !3
  %30 = getelementptr inbounds nuw %struct._lv_display_t, ptr %29, i32 0, i32 14
  %31 = load volatile i8, ptr %30, align 8
  %32 = lshr i8 %31, 1
  %33 = and i8 %32, 1
  %34 = zext i8 %33 to i32
  %35 = icmp ne i32 %34, 0
  br i1 %35, label %36, label %39

36:                                               ; preds = %28
  %37 = load ptr, ptr %2, align 8, !tbaa !3
  %38 = getelementptr inbounds nuw %struct._lv_display_t, ptr %37, i32 0, i32 13
  store volatile i32 1, ptr %38, align 4, !tbaa !105
  br label %42

39:                                               ; preds = %28, %19
  %40 = load ptr, ptr %2, align 8, !tbaa !3
  %41 = getelementptr inbounds nuw %struct._lv_display_t, ptr %40, i32 0, i32 13
  store volatile i32 0, ptr %41, align 4, !tbaa !105
  br label %42

42:                                               ; preds = %39, %36
  call void @llvm.lifetime.start.p0(i64 1, ptr %4) #6
  %43 = load ptr, ptr %2, align 8, !tbaa !3
  %44 = getelementptr inbounds nuw %struct._lv_display_t, ptr %43, i32 0, i32 13
  %45 = load volatile i32, ptr %44, align 4, !tbaa !105
  %46 = icmp ne i32 %45, 0
  %47 = zext i1 %46 to i8
  store i8 %47, ptr %4, align 1, !tbaa !45
  %48 = load ptr, ptr %2, align 8, !tbaa !3
  %49 = getelementptr inbounds nuw %struct._lv_display_t, ptr %48, i32 0, i32 10
  %50 = load ptr, ptr %49, align 8, !tbaa !120
  %51 = icmp ne ptr %50, null
  br i1 %51, label %52, label %61

52:                                               ; preds = %42
  %53 = load ptr, ptr %2, align 8, !tbaa !3
  %54 = load ptr, ptr %2, align 8, !tbaa !3
  %55 = getelementptr inbounds nuw %struct._lv_display_t, ptr %54, i32 0, i32 44
  %56 = load ptr, ptr %3, align 8, !tbaa !3
  %57 = getelementptr inbounds nuw %struct._lv_layer_t, ptr %56, i32 0, i32 0
  %58 = load ptr, ptr %57, align 8, !tbaa !108
  %59 = getelementptr inbounds nuw %struct._lv_draw_buf_t, ptr %58, i32 0, i32 2
  %60 = load ptr, ptr %59, align 8, !tbaa !32
  call void @call_flush_cb(ptr noundef %53, ptr noundef %55, ptr noundef %60)
  br label %61

61:                                               ; preds = %52, %42
  %62 = load ptr, ptr %2, align 8, !tbaa !3
  %63 = call zeroext i1 @lv_display_is_double_buffered(ptr noundef %62)
  br i1 %63, label %64, label %93

64:                                               ; preds = %61
  %65 = load ptr, ptr %2, align 8, !tbaa !3
  %66 = getelementptr inbounds nuw %struct._lv_display_t, ptr %65, i32 0, i32 15
  %67 = load i32, ptr %66, align 4, !tbaa !40
  %68 = icmp ne i32 %67, 1
  br i1 %68, label %72, label %69

69:                                               ; preds = %64
  %70 = load i8, ptr %4, align 1, !tbaa !45, !range !46, !noundef !47
  %71 = trunc i8 %70 to i1
  br i1 %71, label %72, label %93

72:                                               ; preds = %69, %64
  %73 = load ptr, ptr %2, align 8, !tbaa !3
  %74 = getelementptr inbounds nuw %struct._lv_display_t, ptr %73, i32 0, i32 9
  %75 = load ptr, ptr %74, align 8, !tbaa !31
  %76 = load ptr, ptr %2, align 8, !tbaa !3
  %77 = getelementptr inbounds nuw %struct._lv_display_t, ptr %76, i32 0, i32 7
  %78 = load ptr, ptr %77, align 8, !tbaa !92
  %79 = icmp eq ptr %75, %78
  br i1 %79, label %80, label %86

80:                                               ; preds = %72
  %81 = load ptr, ptr %2, align 8, !tbaa !3
  %82 = getelementptr inbounds nuw %struct._lv_display_t, ptr %81, i32 0, i32 8
  %83 = load ptr, ptr %82, align 8, !tbaa !93
  %84 = load ptr, ptr %2, align 8, !tbaa !3
  %85 = getelementptr inbounds nuw %struct._lv_display_t, ptr %84, i32 0, i32 9
  store ptr %83, ptr %85, align 8, !tbaa !31
  br label %92

86:                                               ; preds = %72
  %87 = load ptr, ptr %2, align 8, !tbaa !3
  %88 = getelementptr inbounds nuw %struct._lv_display_t, ptr %87, i32 0, i32 7
  %89 = load ptr, ptr %88, align 8, !tbaa !92
  %90 = load ptr, ptr %2, align 8, !tbaa !3
  %91 = getelementptr inbounds nuw %struct._lv_display_t, ptr %90, i32 0, i32 9
  store ptr %89, ptr %91, align 8, !tbaa !31
  br label %92

92:                                               ; preds = %86, %80
  br label %93

93:                                               ; preds = %92, %69, %61
  call void @llvm.lifetime.end.p0(i64 1, ptr %4) #6
  call void @llvm.lifetime.end.p0(i64 8, ptr %3) #6
  ret void
}