; Function Attrs: nounwind uwtable
define internal fastcc void @draw_buf_flush(ptr noundef %0) unnamed_addr #1 {
  %2 = alloca %struct.lv_area_t, align 4
  %3 = getelementptr inbounds nuw i8, ptr %0, i64 752
  %4 = load ptr, ptr %3, align 8, !tbaa !101
  %5 = getelementptr inbounds nuw i8, ptr %4, i64 64
  %6 = load ptr, ptr %5, align 8, !tbaa !107
  %.not26 = icmp eq ptr %6, null
  br i1 %.not26, label %._crit_edge, label %.lr.ph

.lr.ph:                                           ; preds = %1, %.lr.ph
  tail call void @lv_draw_dispatch_wait_for_request() #9
  tail call void @lv_draw_dispatch() #9
  %7 = load ptr, ptr %5, align 8, !tbaa !107
  %.not = icmp eq ptr %7, null
  br i1 %.not, label %._crit_edge, label %.lr.ph, !llvm.loop !113

._crit_edge:                                      ; preds = %.lr.ph, %1
  %8 = tail call zeroext i1 @lv_display_is_double_buffered(ptr noundef %0) #9
  br i1 %8, label %9, label %22

9:                                                ; preds = %._crit_edge
  %10 = load ptr, ptr getelementptr inbounds nuw (i8, ptr @lv_global, i64 32), align 8, !tbaa !20
  %11 = tail call i32 @lv_display_send_event(ptr noundef %10, i32 noundef 63, ptr noundef null) #9
  %12 = getelementptr inbounds nuw i8, ptr %10, i64 64
  %13 = load ptr, ptr %12, align 8, !tbaa !47
  %.not.i = icmp eq ptr %13, null
  %14 = getelementptr inbounds nuw i8, ptr %10, i64 72
  br i1 %.not.i, label %.preheader.i, label %15

15:                                               ; preds = %9
  %16 = load volatile i32, ptr %14, align 8, !tbaa !48
  %.not10.i = icmp eq i32 %16, 0
  br i1 %.not10.i, label %18, label %17

17:                                               ; preds = %15
  tail call void %13(ptr noundef nonnull %10) #9
  br label %18

18:                                               ; preds = %17, %15
  store volatile i32 0, ptr %14, align 8, !tbaa !48
  br label %wait_for_flushing.exit

.preheader.i:                                     ; preds = %9, %.preheader.i
  %19 = load volatile i32, ptr %14, align 8, !tbaa !48
  %.not9.i = icmp eq i32 %19, 0
  br i1 %.not9.i, label %wait_for_flushing.exit, label %.preheader.i, !llvm.loop !49

wait_for_flushing.exit:                           ; preds = %.preheader.i, %18
  %20 = getelementptr inbounds nuw i8, ptr %10, i64 76
  store volatile i32 0, ptr %20, align 4, !tbaa !50
  %21 = tail call i32 @lv_display_send_event(ptr noundef nonnull %10, i32 noundef 64, ptr noundef null) #9
  br label %22

22:                                               ; preds = %wait_for_flushing.exit, %._crit_edge
  %23 = getelementptr inbounds nuw i8, ptr %0, i64 72
  store volatile i32 1, ptr %23, align 8, !tbaa !48
  %24 = getelementptr inbounds nuw i8, ptr %0, i64 80
  %25 = load volatile i8, ptr %24, align 8
  %26 = and i8 %25, 1
  %.not21 = icmp eq i8 %26, 0
  br i1 %.not21, label %30, label %27

27:                                               ; preds = %22
  %28 = load volatile i8, ptr %24, align 8
  %29 = and i8 %28, 2
  %.not22 = icmp eq i8 %29, 0
  br i1 %.not22, label %30, label %31

30:                                               ; preds = %27, %22
  br label %31

31:                                               ; preds = %27, %30
  %.sink = phi i32 [ 0, %30 ], [ 1, %27 ]
  %32 = getelementptr inbounds nuw i8, ptr %0, i64 76
  store volatile i32 %.sink, ptr %32, align 4, !tbaa !50
  %33 = getelementptr inbounds nuw i8, ptr %0, i64 76
  %34 = load volatile i32, ptr %33, align 4, !tbaa !50
  %.not23 = icmp ne i32 %34, 0
  %35 = getelementptr inbounds nuw i8, ptr %0, i64 56
  %36 = load ptr, ptr %35, align 8, !tbaa !114
  %.not24 = icmp eq ptr %36, null
  br i1 %.not24, label %63, label %37

37:                                               ; preds = %31
  %38 = getelementptr inbounds nuw i8, ptr %0, i64 916
  %39 = load ptr, ptr %4, align 8, !tbaa !102
  %40 = getelementptr inbounds nuw i8, ptr %39, i64 16
  %41 = load ptr, ptr %40, align 8, !tbaa !31
  call void @llvm.lifetime.start.p0(i64 16, ptr nonnull %2) #9
  %42 = load i32, ptr %38, align 4, !tbaa !40
  %43 = getelementptr inbounds nuw i8, ptr %0, i64 16
  %44 = load i32, ptr %43, align 8, !tbaa !115
  %45 = add nsw i32 %44, %42
  store i32 %45, ptr %2, align 4, !tbaa !40
  %46 = getelementptr inbounds nuw i8, ptr %2, i64 4
  %47 = getelementptr inbounds nuw i8, ptr %0, i64 920
  %48 = load i32, ptr %47, align 4, !tbaa !41
  %49 = getelementptr inbounds nuw i8, ptr %0, i64 20
  %50 = load i32, ptr %49, align 4, !tbaa !116
  %51 = add nsw i32 %50, %48
  store i32 %51, ptr %46, align 4, !tbaa !41
  %52 = getelementptr inbounds nuw i8, ptr %2, i64 8
  %53 = getelementptr inbounds nuw i8, ptr %0, i64 924
  %54 = load i32, ptr %53, align 4, !tbaa !42
  %55 = add nsw i32 %54, %44
  store i32 %55, ptr %52, align 4, !tbaa !42
  %56 = getelementptr inbounds nuw i8, ptr %2, i64 12
  %57 = getelementptr inbounds nuw i8, ptr %0, i64 928
  %58 = load i32, ptr %57, align 4, !tbaa !43
  %59 = add nsw i32 %58, %50
  store i32 %59, ptr %56, align 4, !tbaa !43
  %60 = call i32 @lv_display_send_event(ptr noundef nonnull %0, i32 noundef 61, ptr noundef nonnull %2) #9
  %61 = load ptr, ptr %35, align 8, !tbaa !114
  call void %61(ptr noundef nonnull %0, ptr noundef nonnull %2, ptr noundef %41) #9
  %62 = call i32 @lv_display_send_event(ptr noundef nonnull %0, i32 noundef 62, ptr noundef nonnull %2) #9
  call void @llvm.lifetime.end.p0(i64 16, ptr nonnull %2) #9
  br label %63

63:                                               ; preds = %37, %31
  %64 = call zeroext i1 @lv_display_is_double_buffered(ptr noundef nonnull %0) #9
  br i1 %64, label %65, label %77

65:                                               ; preds = %63
  %66 = getelementptr inbounds nuw i8, ptr %0, i64 84
  %67 = load i32, ptr %66, align 4, !tbaa !46
  %.not25 = icmp ne i32 %67, 1
  %brmerge = select i1 %.not25, i1 true, i1 %.not23
  br i1 %brmerge, label %68, label %77

68:                                               ; preds = %65
  %69 = getelementptr inbounds nuw i8, ptr %0, i64 48
  %70 = load ptr, ptr %69, align 8, !tbaa !30
  %71 = getelementptr inbounds nuw i8, ptr %0, i64 32
  %72 = load ptr, ptr %71, align 8, !tbaa !51
  %73 = icmp eq ptr %70, %72
  br i1 %73, label %74, label %.sink.split

74:                                               ; preds = %68
  %75 = getelementptr inbounds nuw i8, ptr %0, i64 40
  %76 = load ptr, ptr %75, align 8, !tbaa !52
  br label %.sink.split

.sink.split:                                      ; preds = %68, %74
  %.sink28 = phi ptr [ %76, %74 ], [ %72, %68 ]
  store ptr %.sink28, ptr %69, align 8, !tbaa !30
  br label %77

77:                                               ; preds = %.sink.split, %65, %63
  ret void
}